; Function Attrs: mustprogress nofree norecurse nosync nounwind willreturn memory(argmem: write) uwtable
define hidden void @_ZN13LIR_AssemblerD2Ev(ptr nocapture noundef nonnull writeonly align 8 dereferenceable(96) %0) unnamed_addr #2 align 2 {
  %2 = getelementptr inbounds i8, ptr %0, i64 56
  store i32 -1, ptr %2, align 8
  %3 = getelementptr inbounds i8, ptr %0, i64 76
  store i32 0, ptr %3, align 4
  %4 = getelementptr inbounds i8, ptr %0, i64 80
  store ptr null, ptr %4, align 8
  %5 = getelementptr inbounds i8, ptr %0, i64 88
  store i8 0, ptr %5, align 8
  ret void
}